; Function Attrs: mustprogress nounwind uwtable
define noundef zeroext i1 @_ZN14mnstatus_csr_t14unlogged_writeEm(ptr noundef nonnull align 8 captures(none) dereferenceable(48) %0, i64 noundef %1) unnamed_addr #7 align 2 personality ptr @__gxx_personality_v0 {
  %3 = getelementptr inbounds nuw i8, ptr %0, i64 40
  %4 = load i64, ptr %3, align 8, !tbaa !159
  %5 = getelementptr inbounds nuw i8, ptr %0, i64 8
  %6 = load ptr, ptr %5, align 8, !tbaa !6
  %7 = getelementptr inbounds nuw i8, ptr %6, i64 1104
  %8 = load ptr, ptr %7, align 8
  %9 = getelementptr inbounds nuw i8, ptr %8, i64 40
  %.sink.i.i = load i64, ptr %9, align 8, !tbaa !96
  %10 = lshr i64 %1, 11
  %11 = and i64 %10, 3
  %12 = invoke noundef i64 @_ZN11processor_t18legalize_privilegeEm(ptr noundef nonnull align 8 dereferenceable(266872) %6, i64 noundef %11)
          to label %13 unwind label %26

13:                                               ; preds = %2
  %14 = and i64 %.sink.i.i, 128
  %15 = and i64 %4, 8
  %16 = or disjoint i64 %14, %15
  %17 = xor i64 %16, 6152
  %18 = and i64 %1, 136
  %19 = shl i64 %12, 11
  %20 = or disjoint i64 %19, %18
  %21 = load i64, ptr %3, align 8, !tbaa !159
  %22 = xor i64 %16, -6153
  %23 = and i64 %21, %22
  %24 = and i64 %20, %17
  %25 = or i64 %23, %24
  store i64 %25, ptr %3, align 8, !tbaa !159
  ret i1 true

26:                                               ; preds = %2
  %27 = landingpad { ptr, i32 }
          catch ptr null
  %28 = extractvalue { ptr, i32 } %27, 0
  tail call void @__clang_call_terminate(ptr %28) #32
  unreachable
}